(lp0
(lp1
S'192.168.2.4'
p2
aS'192.168.100.111'
p3
aa(lp4
S'192.168.2.5'
p5
aS'192.168.100.112'
p6
aa(lp7
S'192.168.2.6'
p8
aS'192.168.100.113'
p9
aa(lp10
S'192.168.2.8'
p11
aS'192.168.100.114'
p12
aa(lp13
S'192.168.2.7'
p14
aS'192.168.100.115'
p15
aa(lp16
S'192.168.3.32'
p17
aS'192.168.100.133'
p18
aa(lp19
S'192.168.3.38'
p20
aS'192.168.100.142'
p21
aa(lp22
S'192.168.3.39'
p23
aS'192.168.100.143'
p24
aa(lp25
S'192.168.3.43'
p26
aS'192.168.100.144'
p27
aa(lp28
S'192.168.3.44'
p29
aS'192.168.100.145'
p30
aa(lp31
S'192.168.3.40'
p32
aS'192.168.100.146'
p33
aa(lp34
S'192.168.3.41'
p35
aS'192.168.100.147'
p36
aa(lp37
S'192.168.3.46'
p38
aS'192.168.100.148'
p39
aa(lp40
S'192.168.3.47'
p41
aS'192.168.100.149'
p42
aa(lp43
S'192.168.3.48'
p44
aS'192.168.100.150'
p45
aa(lp46
S'192.168.3.42'
p47
aS'192.168.100.151'
p48
aa(lp49
S'192.168.3.50'
p50
aS'192.168.100.134'
p51
aa(lp52
S'192.168.3.45'
p53
aS'192.168.100.152'
p54
aa(lp55
S'192.168.3.33'
p56
aS'192.168.100.135'
p57
aa(lp58
S'192.168.3.34'
p59
aS'192.168.100.136'
p60
aa(lp61
S'192.168.3.51'
p62
aS'192.168.100.137'
p63
aa(lp64
S'192.168.3.35'
p65
aS'192.168.100.138'
p66
aa(lp67
S'192.168.3.36'
p68
aS'192.168.100.139'
p69
aa(lp70
S'192.168.3.49'
p71
aS'192.168.100.140'
p72
aa(lp73
S'192.168.3.37'
p74
aS'192.168.100.141'
p75
aa(lp76
S'192.168.4.3'
p77
aS'192.168.100.183'
p78
aa(lp79
S'192.168.4.4'
p80
aS'192.168.100.184'
p81
aa(lp82
S'192.168.5.3'
p83
aS'192.168.100.116'
p84
aa(lp85
S'192.168.5.4'
p86
aS'192.168.100.117'
p87
aa(lp88
S'192.168.5.5'
p89
aS'192.168.100.118'
p90
aa(lp91
S'192.168.5.6'
p92
aS'192.168.100.119'
p93
aa(lp94
S'192.168.5.8'
p95
aS'192.168.100.120'
p96
aa(lp97
S'192.168.5.9'
p98
aS'192.168.100.121'
p99
aa(lp100
S'192.168.5.7'
p101
aS'192.168.100.122'
p102
aa(lp103
S'192.168.6.3'
p104
aS'192.168.100.123'
p105
aa(lp106
S'192.168.6.12'
p107
aS'192.168.100.132'
p108
aa(lp109
S'192.168.6.4'
p110
aS'192.168.100.124'
p111
aa(lp112
S'192.168.6.5'
p113
aS'192.168.100.125'
p114
aa(lp115
S'192.168.6.6'
p116
aS'192.168.100.126'
p117
aa(lp118
S'192.168.6.7'
p119
aS'192.168.100.127'
p120
aa(lp121
S'192.168.6.8'
p122
aS'192.168.100.128'
p123
aa(lp124
S'192.168.6.9'
p125
aS'192.168.100.129'
p126
aa(lp127
S'192.168.6.10'
p128
aS'192.168.100.130'
p129
aa(lp130
S'192.168.6.11'
p131
aS'192.168.100.131'
p132
aa(lp133
S'192.168.7.34'
p134
aS'192.168.100.153'
p135
aa(lp136
S'192.168.7.39'
p137
aS'192.168.100.162'
p138
aa(lp139
S'192.168.7.44'
p140
aS'192.168.100.163'
p141
aa(lp142
S'192.168.7.46'
p143
aS'192.168.100.164'
p144
aa(lp145
S'192.168.7.59'
p146
aS'192.168.100.165'
p147
aa(lp148
S'192.168.7.45'
p149
aS'192.168.100.166'
p150
aa(lp151
S'192.168.7.52'
p152
aS'192.168.100.167'
p153
aa(lp154
S'192.168.7.60'
p155
aS'192.168.100.168'
p156
aa(lp157
S'192.168.7.49'
p158
aS'192.168.100.169'
p159
aa(lp160
S'192.168.7.41'
p161
aS'192.168.100.170'
p162
aa(lp163
S'192.168.7.55'
p164
aS'192.168.100.171'
p165
aa(lp166
S'192.168.7.35'
p167
aS'192.168.100.154'
p168
aa(lp169
S'192.168.7.47'
p170
aS'192.168.100.172'
p171
aa(lp172
S'192.168.7.57'
p173
aS'192.168.100.173'
p174
aa(lp175
S'192.168.7.51'
p176
aS'192.168.100.174'
p177
aa(lp178
S'192.168.7.42'
p179
aS'192.168.100.175'
p180
aa(lp181
S'192.168.7.53'
p182
aS'192.168.100.176'
p183
aa(lp184
S'192.168.7.56'
p185
aS'192.168.100.177'
p186
aa(lp187
S'192.168.7.58'
p188
aS'192.168.100.178'
p189
aa(lp190
S'192.168.7.48'
p191
aS'192.168.100.179'
p192
aa(lp193
S'192.168.7.50'
p194
aS'192.168.100.180'
p195
aa(lp196
S'192.168.7.54'
p197
aS'192.168.100.181'
p198
aa(lp199
S'192.168.7.61'
p200
aS'192.168.100.155'
p201
aa(lp202
S'192.168.7.43'
p203
aS'192.168.100.182'
p204
aa(lp205
S'192.168.7.62'
p206
aS'192.168.100.156'
p207
aa(lp208
S'192.168.7.40'
p209
aS'192.168.100.157'
p210
aa(lp211
S'192.168.7.37'
p212
aS'192.168.100.158'
p213
aa(lp214
S'192.168.7.38'
p215
aS'192.168.100.159'
p216
aa(lp217
S'192.168.7.36'
p218
aS'192.168.100.160'
p219
aa(lp220
S'192.168.7.63'
p221
aS'192.168.100.161'
p222
aa(lp223
S'192.168.8.4'
p224
aS'192.168.100.185'
p225
aa(lp226
S'192.168.8.12'
p227
aS'192.168.100.194'
p228
aa(lp229
S'192.168.8.3'
p230
aS'192.168.100.186'
p231
aa(lp232
S'192.168.8.5'
p233
aS'192.168.100.187'
p234
aa(lp235
S'192.168.8.6'
p236
aS'192.168.100.188'
p237
aa(lp238
S'192.168.8.8'
p239
aS'192.168.100.189'
p240
aa(lp241
S'192.168.8.7'
p242
aS'192.168.100.190'
p243
aa(lp244
S'192.168.8.9'
p245
aS'192.168.100.191'
p246
aa(lp247
S'192.168.8.10'
p248
aS'192.168.100.192'
p249
aa(lp250
S'192.168.8.11'
p251
aS'192.168.100.193'
p252
aa(lp253
S'192.168.9.3'
p254
aS'192.168.100.195'
p255
aa(lp256
S'192.168.9.12'
p257
aS'192.168.100.204'
p258
aa(lp259
S'192.168.9.14'
p260
aS'192.168.100.205'
p261
aa(lp262
S'192.168.9.13'
p263
aS'192.168.100.206'
p264
aa(lp265
S'192.168.9.16'
p266
aS'192.168.100.207'
p267
aa(lp268
S'192.168.9.15'
p269
aS'192.168.100.208'
p270
aa(lp271
S'192.168.9.17'
p272
aS'192.168.100.209'
p273
aa(lp274
S'192.168.9.4'
p275
aS'192.168.100.196'
p276
aa(lp277
S'192.168.9.5'
p278
aS'192.168.100.197'
p279
aa(lp280
S'192.168.9.9'
p281
aS'192.168.100.198'
p282
aa(lp283
S'192.168.9.7'
p284
aS'192.168.100.199'
p285
aa(lp286
S'192.168.9.8'
p287
aS'192.168.100.200'
p288
aa(lp289
S'192.168.9.6'
p290
aS'192.168.100.201'
p291
aa(lp292
S'192.168.9.11'
p293
aS'192.168.100.202'
p294
aa(lp295
S'192.168.9.10'
p296
aS'192.168.100.203'
p297
aa(lp298
S'192.168.20.3'
p299
aS'192.168.100.109'
p300
aa(lp301
S'192.168.1.3'
p302
aS'192.168.100.210'
p303
aa(lp304
S'192.168.6.13'
p305
aS'192.168.100.211'
p306
aa(lp307
S'192.168.8.13'
p308
aS'192.168.100.212'
p309
aa(lp310
S'192.168.8.14'
p311
aS'192.168.100.213'
p312
aa(lp313
S'192.168.8.15'
p314
aS'192.168.100.214'
p315
aa.